target datalayout = "e-m:e-p270:32:32-p271:32:32-p272:64:64-i64:64-i128:128-f80:128-n8:16:32:64-S128"
target triple = "x86_64-pc-linux-gnu"

%struct.opj_jp2 = type { ptr, ptr, ptr, i32, i32, i32, i32, i32, i32, i32, i32, i32, i32, i32, i32, i32, i32, ptr, ptr, i64, i64, i32, i32, i32, %struct.opj_jp2_color, i32, i8, i8 }
%struct.opj_jp2_color = type { ptr, i32, ptr, ptr, i8 }
%struct.opj_j2k = type { i32, %union.anon, ptr, ptr, %struct.opj_cp, ptr, ptr, ptr, i32, ptr, ptr, i32, i32, i32 }
%union.anon = type { %struct.opj_j2k_dec }
%struct.opj_j2k_dec = type { i32, ptr, ptr, i32, i32, i32, i32, i32, i32, i32, i64, i32, i32, ptr, %struct.opj_j2k_tlm_info, i32, i32, ptr, i8 }
%struct.opj_j2k_tlm_info = type { i32, ptr, i32 }
%struct.opj_cp = type { i16, i32, i32, i32, i32, ptr, i32, i32, i32, ptr, ptr, i32, i32, ptr, ptr, ptr, i32, i32, i32, ptr, %union.anon.0, i32, i8 }
%union.anon.0 = type { %struct.opj_encoding_param }
%struct.opj_encoding_param = type { i32, i32, ptr, i8, i32, i8 }

@.str.54 = private unnamed_addr constant [48 x i8] c"Ignoring ihdr box. First ihdr box already read\0A\00", align 1
@.str.55 = private unnamed_addr constant [33 x i8] c"Bad image header box (bad size)\0A\00", align 1
@.str.56 = private unnamed_addr constant [51 x i8] c"Wrong values for: w(%d) h(%d) numcomps(%d) (ihdr)\0A\00", align 1
@.str.57 = private unnamed_addr constant [37 x i8] c"Invalid number of components (ihdr)\0A\00", align 1
@.str.58 = private unnamed_addr constant [49 x i8] c"Not enough memory to handle image header (ihdr)\0A\00", align 1
@.str.59 = private unnamed_addr constant [90 x i8] c"JP2 IHDR box: compression type indicate that the file is not a conforming JP2 file (%d) \0A\00", align 1

; Function Attrs: nounwind uwtable
define internal i32 @opj_jp2_read_ihdr(ptr noundef %0, ptr noundef %1, i32 noundef %2, ptr noundef %3) #0 {
  %5 = alloca i32, align 4
  %6 = alloca ptr, align 8
  %7 = alloca ptr, align 8
  %8 = alloca i32, align 4
  %9 = alloca ptr, align 8
  store ptr %0, ptr %6, align 8, !tbaa !3
  store ptr %1, ptr %7, align 8, !tbaa !106
  store i32 %2, ptr %8, align 4, !tbaa !39
  store ptr %3, ptr %9, align 8, !tbaa !12
  %10 = load ptr, ptr %6, align 8, !tbaa !3
  %11 = getelementptr inbounds nuw %struct.opj_jp2, ptr %10, i32 0, i32 18
  %12 = load ptr, ptr %11, align 8, !tbaa !50
  %13 = icmp ne ptr %12, null
  br i1 %13, label %14, label %17

14:                                               ; preds = %4
  %15 = load ptr, ptr %9, align 8, !tbaa !12
  %16 = call i32 (ptr, i32, ptr, ...) @opj_event_msg(ptr noundef %15, i32 noundef 2, ptr noundef @.str.54)
  store i32 1, ptr %5, align 4
  br label %153

17:                                               ; preds = %4
  %18 = load i32, ptr %8, align 4, !tbaa !39
  %19 = icmp ne i32 %18, 14
  br i1 %19, label %20, label %23

20:                                               ; preds = %17
  %21 = load ptr, ptr %9, align 8, !tbaa !12
  %22 = call i32 (ptr, i32, ptr, ...) @opj_event_msg(ptr noundef %21, i32 noundef 1, ptr noundef @.str.55)
  store i32 0, ptr %5, align 4
  br label %153

23:                                               ; preds = %17
  %24 = load ptr, ptr %7, align 8, !tbaa !106
  %25 = load ptr, ptr %6, align 8, !tbaa !3
  %26 = getelementptr inbounds nuw %struct.opj_jp2, ptr %25, i32 0, i32 4
  call void @opj_read_bytes_LE(ptr noundef %24, ptr noundef %26, i32 noundef 4)
  %27 = load ptr, ptr %7, align 8, !tbaa !106
  %28 = getelementptr inbounds i8, ptr %27, i64 4
  store ptr %28, ptr %7, align 8, !tbaa !106
  %29 = load ptr, ptr %7, align 8, !tbaa !106
  %30 = load ptr, ptr %6, align 8, !tbaa !3
  %31 = getelementptr inbounds nuw %struct.opj_jp2, ptr %30, i32 0, i32 3
  call void @opj_read_bytes_LE(ptr noundef %29, ptr noundef %31, i32 noundef 4)
  %32 = load ptr, ptr %7, align 8, !tbaa !106
  %33 = getelementptr inbounds i8, ptr %32, i64 4
  store ptr %33, ptr %7, align 8, !tbaa !106
  %34 = load ptr, ptr %7, align 8, !tbaa !106
  %35 = load ptr, ptr %6, align 8, !tbaa !3
  %36 = getelementptr inbounds nuw %struct.opj_jp2, ptr %35, i32 0, i32 5
  call void @opj_read_bytes_LE(ptr noundef %34, ptr noundef %36, i32 noundef 2)
  %37 = load ptr, ptr %7, align 8, !tbaa !106
  %38 = getelementptr inbounds i8, ptr %37, i64 2
  store ptr %38, ptr %7, align 8, !tbaa !106
  %39 = load ptr, ptr %6, align 8, !tbaa !3
  %40 = getelementptr inbounds nuw %struct.opj_jp2, ptr %39, i32 0, i32 4
  %41 = load i32, ptr %40, align 4, !tbaa !53
  %42 = icmp ult i32 %41, 1
  br i1 %42, label %53, label %43

43:                                               ; preds = %23
  %44 = load ptr, ptr %6, align 8, !tbaa !3
  %45 = getelementptr inbounds nuw %struct.opj_jp2, ptr %44, i32 0, i32 3
  %46 = load i32, ptr %45, align 8, !tbaa !56
  %47 = icmp ult i32 %46, 1
  br i1 %47, label %53, label %48

48:                                               ; preds = %43
  %49 = load ptr, ptr %6, align 8, !tbaa !3
  %50 = getelementptr inbounds nuw %struct.opj_jp2, ptr %49, i32 0, i32 5
  %51 = load i32, ptr %50, align 8, !tbaa !49
  %52 = icmp ult i32 %51, 1
  br i1 %52, label %53, label %65

53:                                               ; preds = %48, %43, %23
  %54 = load ptr, ptr %9, align 8, !tbaa !12
  %55 = load ptr, ptr %6, align 8, !tbaa !3
  %56 = getelementptr inbounds nuw %struct.opj_jp2, ptr %55, i32 0, i32 3
  %57 = load i32, ptr %56, align 8, !tbaa !56
  %58 = load ptr, ptr %6, align 8, !tbaa !3
  %59 = getelementptr inbounds nuw %struct.opj_jp2, ptr %58, i32 0, i32 4
  %60 = load i32, ptr %59, align 4, !tbaa !53
  %61 = load ptr, ptr %6, align 8, !tbaa !3
  %62 = getelementptr inbounds nuw %struct.opj_jp2, ptr %61, i32 0, i32 5
  %63 = load i32, ptr %62, align 8, !tbaa !49
  %64 = call i32 (ptr, i32, ptr, ...) @opj_event_msg(ptr noundef %54, i32 noundef 1, ptr noundef @.str.56, i32 noundef %57, i32 noundef %60, i32 noundef %63)
  store i32 0, ptr %5, align 4
  br label %153

65:                                               ; preds = %48
  %66 = load ptr, ptr %6, align 8, !tbaa !3
  %67 = getelementptr inbounds nuw %struct.opj_jp2, ptr %66, i32 0, i32 5
  %68 = load i32, ptr %67, align 8, !tbaa !49
  %69 = sub i32 %68, 1
  %70 = icmp uge i32 %69, 16384
  br i1 %70, label %71, label %74

71:                                               ; preds = %65
  %72 = load ptr, ptr %9, align 8, !tbaa !12
  %73 = call i32 (ptr, i32, ptr, ...) @opj_event_msg(ptr noundef %72, i32 noundef 1, ptr noundef @.str.57)
  store i32 0, ptr %5, align 4
  br label %153

74:                                               ; preds = %65
  %75 = load ptr, ptr %6, align 8, !tbaa !3
  %76 = getelementptr inbounds nuw %struct.opj_jp2, ptr %75, i32 0, i32 5
  %77 = load i32, ptr %76, align 8, !tbaa !49
  %78 = zext i32 %77 to i64
  %79 = call ptr @opj_calloc(i64 noundef %78, i64 noundef 12)
  %80 = load ptr, ptr %6, align 8, !tbaa !3
  %81 = getelementptr inbounds nuw %struct.opj_jp2, ptr %80, i32 0, i32 18
  store ptr %79, ptr %81, align 8, !tbaa !50
  %82 = load ptr, ptr %6, align 8, !tbaa !3
  %83 = getelementptr inbounds nuw %struct.opj_jp2, ptr %82, i32 0, i32 18
  %84 = load ptr, ptr %83, align 8, !tbaa !50
  %85 = icmp eq ptr %84, null
  br i1 %85, label %86, label %89

86:                                               ; preds = %74
  %87 = load ptr, ptr %9, align 8, !tbaa !12
  %88 = call i32 (ptr, i32, ptr, ...) @opj_event_msg(ptr noundef %87, i32 noundef 1, ptr noundef @.str.58)
  store i32 0, ptr %5, align 4
  br label %153

89:                                               ; preds = %74
  %90 = load ptr, ptr %7, align 8, !tbaa !106
  %91 = load ptr, ptr %6, align 8, !tbaa !3
  %92 = getelementptr inbounds nuw %struct.opj_jp2, ptr %91, i32 0, i32 6
  call void @opj_read_bytes_LE(ptr noundef %90, ptr noundef %92, i32 noundef 1)
  %93 = load ptr, ptr %7, align 8, !tbaa !106
  %94 = getelementptr inbounds nuw i8, ptr %93, i32 1
  store ptr %94, ptr %7, align 8, !tbaa !106
  %95 = load ptr, ptr %7, align 8, !tbaa !106
  %96 = load ptr, ptr %6, align 8, !tbaa !3
  %97 = getelementptr inbounds nuw %struct.opj_jp2, ptr %96, i32 0, i32 7
  call void @opj_read_bytes_LE(ptr noundef %95, ptr noundef %97, i32 noundef 1)
  %98 = load ptr, ptr %7, align 8, !tbaa !106
  %99 = getelementptr inbounds nuw i8, ptr %98, i32 1
  store ptr %99, ptr %7, align 8, !tbaa !106
  %100 = load ptr, ptr %6, align 8, !tbaa !3
  %101 = getelementptr inbounds nuw %struct.opj_jp2, ptr %100, i32 0, i32 7
  %102 = load i32, ptr %101, align 8, !tbaa !64
  %103 = icmp ne i32 %102, 7
  br i1 %103, label %104, label %110

104:                                              ; preds = %89
  %105 = load ptr, ptr %9, align 8, !tbaa !12
  %106 = load ptr, ptr %6, align 8, !tbaa !3
  %107 = getelementptr inbounds nuw %struct.opj_jp2, ptr %106, i32 0, i32 7
  %108 = load i32, ptr %107, align 8, !tbaa !64
  %109 = call i32 (ptr, i32, ptr, ...) @opj_event_msg(ptr noundef %105, i32 noundef 4, ptr noundef @.str.59, i32 noundef %108)
  br label %110

110:                                              ; preds = %104, %89
  %111 = load ptr, ptr %7, align 8, !tbaa !106
  %112 = load ptr, ptr %6, align 8, !tbaa !3
  %113 = getelementptr inbounds nuw %struct.opj_jp2, ptr %112, i32 0, i32 8
  call void @opj_read_bytes_LE(ptr noundef %111, ptr noundef %113, i32 noundef 1)
  %114 = load ptr, ptr %7, align 8, !tbaa !106
  %115 = getelementptr inbounds nuw i8, ptr %114, i32 1
  store ptr %115, ptr %7, align 8, !tbaa !106
  %116 = load ptr, ptr %7, align 8, !tbaa !106
  %117 = load ptr, ptr %6, align 8, !tbaa !3
  %118 = getelementptr inbounds nuw %struct.opj_jp2, ptr %117, i32 0, i32 9
  call void @opj_read_bytes_LE(ptr noundef %116, ptr noundef %118, i32 noundef 1)
  %119 = load ptr, ptr %7, align 8, !tbaa !106
  %120 = getelementptr inbounds nuw i8, ptr %119, i32 1
  store ptr %120, ptr %7, align 8, !tbaa !106
  %121 = load ptr, ptr %6, align 8, !tbaa !3
  %122 = getelementptr inbounds nuw %struct.opj_jp2, ptr %121, i32 0, i32 6
  %123 = load i32, ptr %122, align 4, !tbaa !61
  %124 = icmp eq i32 %123, 255
  %125 = zext i1 %124 to i32
  %126 = load ptr, ptr %6, align 8, !tbaa !3
  %127 = getelementptr inbounds nuw %struct.opj_jp2, ptr %126, i32 0, i32 0
  %128 = load ptr, ptr %127, align 8, !tbaa !14
  %129 = getelementptr inbounds nuw %struct.opj_j2k, ptr %128, i32 0, i32 4
  %130 = getelementptr inbounds nuw %struct.opj_cp, ptr %129, i32 0, i32 22
  %131 = trunc i32 %125 to i8
  %132 = load i8, ptr %130, align 4
  %133 = and i8 %131, 1
  %134 = shl i8 %133, 2
  %135 = and i8 %132, -5
  %136 = or i8 %135, %134
  store i8 %136, ptr %130, align 4
  %137 = load ptr, ptr %6, align 8, !tbaa !3
  %138 = getelementptr inbounds nuw %struct.opj_jp2, ptr %137, i32 0, i32 3
  %139 = load i32, ptr %138, align 8, !tbaa !56
  %140 = load ptr, ptr %6, align 8, !tbaa !3
  %141 = getelementptr inbounds nuw %struct.opj_jp2, ptr %140, i32 0, i32 0
  %142 = load ptr, ptr %141, align 8, !tbaa !14
  %143 = getelementptr inbounds nuw %struct.opj_j2k, ptr %142, i32 0, i32 11
  store i32 %139, ptr %143, align 8, !tbaa !168
  %144 = load ptr, ptr %6, align 8, !tbaa !3
  %145 = getelementptr inbounds nuw %struct.opj_jp2, ptr %144, i32 0, i32 4
  %146 = load i32, ptr %145, align 4, !tbaa !53
  %147 = load ptr, ptr %6, align 8, !tbaa !3
  %148 = getelementptr inbounds nuw %struct.opj_jp2, ptr %147, i32 0, i32 0
  %149 = load ptr, ptr %148, align 8, !tbaa !14
  %150 = getelementptr inbounds nuw %struct.opj_j2k, ptr %149, i32 0, i32 12
  store i32 %146, ptr %150, align 4, !tbaa !176
  %151 = load ptr, ptr %6, align 8, !tbaa !3
  %152 = getelementptr inbounds nuw %struct.opj_jp2, ptr %151, i32 0, i32 27
  store i8 1, ptr %152, align 1, !tbaa !101
  store i32 1, ptr %5, align 4
  br label %153

153:                                              ; preds = %110, %86, %71, %53, %20, %14
  %154 = load i32, ptr %5, align 4
  ret i32 %154
}